target datalayout = "e-m:e-p270:32:32-p271:32:32-p272:64:64-i64:64-i128:128-f80:128-n8:16:32:64-S128"
target triple = "x86_64-pc-linux-gnu"

%struct.lean_object = type { i32, i32 }

; Function Attrs: inlinehint nounwind uwtable
define internal zeroext i8 @lean_uint32_dec_eq(i32 noundef %0, i32 noundef %1) #0 {
  %3 = alloca i32, align 4
  %4 = alloca i32, align 4
  store i32 %0, ptr %3, align 4, !tbaa !4
  store i32 %1, ptr %4, align 4, !tbaa !4
  %5 = load i32, ptr %3, align 4, !tbaa !4
  %6 = load i32, ptr %4, align 4, !tbaa !4
  %7 = icmp eq i32 %5, %6
  %8 = zext i1 %7 to i32
  %9 = trunc i32 %8 to i8
  ret i8 %9
}

; Function Attrs: alwaysinline nounwind uwtable
define internal void @lean_dec_ref(ptr noundef %0) #1 {
  %2 = alloca ptr, align 8
  store ptr %0, ptr %2, align 8, !tbaa !11
  %3 = load ptr, ptr %2, align 8, !tbaa !11
  %4 = getelementptr inbounds nuw %struct.lean_object, ptr %3, i32 0, i32 0
  %5 = load i32, ptr %4, align 4, !tbaa !15
  %6 = icmp sgt i32 %5, 1
  %7 = zext i1 %6 to i32
  %8 = sext i32 %7 to i64
  %9 = call i64 @llvm.expect.i64(i64 %8, i64 1)
  %10 = icmp ne i64 %9, 0
  br i1 %10, label %11, label %16

11:                                               ; preds = %1
  %12 = load ptr, ptr %2, align 8, !tbaa !11
  %13 = getelementptr inbounds nuw %struct.lean_object, ptr %12, i32 0, i32 0
  %14 = load i32, ptr %13, align 4, !tbaa !15
  %15 = add i32 %14, -1
  store i32 %15, ptr %13, align 4, !tbaa !15
  br label %24

16:                                               ; preds = %1
  %17 = load ptr, ptr %2, align 8, !tbaa !11
  %18 = getelementptr inbounds nuw %struct.lean_object, ptr %17, i32 0, i32 0
  %19 = load i32, ptr %18, align 4, !tbaa !15
  %20 = icmp ne i32 %19, 0
  br i1 %20, label %21, label %23

21:                                               ; preds = %16
  %22 = load ptr, ptr %2, align 8, !tbaa !11
  call void @lean_dec_ref_cold(ptr noundef %22)
  br label %23

23:                                               ; preds = %21, %16
  br label %24

24:                                               ; preds = %23, %11
  ret void
}

; Function Attrs: alwaysinline nounwind uwtable
define internal zeroext i1 @lean_is_scalar(ptr noundef %0) #1 {
  %2 = alloca ptr, align 8
  store ptr %0, ptr %2, align 8, !tbaa !11
  %3 = load ptr, ptr %2, align 8, !tbaa !11
  %4 = ptrtoint ptr %3 to i64
  %5 = and i64 %4, 1
  %6 = icmp eq i64 %5, 1
  ret i1 %6
}

; Function Attrs: inlinehint nounwind uwtable
define internal i64 @lean_unbox(ptr noundef %0) #0 {
  %2 = alloca ptr, align 8
  store ptr %0, ptr %2, align 8, !tbaa !11
  %3 = load ptr, ptr %2, align 8, !tbaa !11
  %4 = ptrtoint ptr %3 to i64
  %5 = lshr i64 %4, 1
  ret i64 %5
}

; Function Attrs: inlinehint nounwind uwtable
define internal ptr @lean_box(i64 noundef %0) #0 {
  %2 = alloca i64, align 8
  store i64 %0, ptr %2, align 8, !tbaa !9
  %3 = load i64, ptr %2, align 8, !tbaa !9
  %4 = shl i64 %3, 1
  %5 = or i64 %4, 1
  %6 = inttoptr i64 %5 to ptr
  ret ptr %6
}

; Function Attrs: nounwind uwtable
define zeroext i8 @l_Lake_isUriUnreservedMark(i32 noundef %0) #2 {
  %2 = alloca i8, align 1
  %3 = alloca i32, align 4
  %4 = alloca i32, align 4
  %5 = alloca i8, align 1
  %6 = alloca i32, align 4
  %7 = alloca i8, align 1
  %8 = alloca i32, align 4
  %9 = alloca i8, align 1
  %10 = alloca i32, align 4
  %11 = alloca i8, align 1
  %12 = alloca i32, align 4
  %13 = alloca i8, align 1
  %14 = alloca i32, align 4
  %15 = alloca i8, align 1
  %16 = alloca i32, align 4
  %17 = alloca i8, align 1
  %18 = alloca i32, align 4
  %19 = alloca i8, align 1
  %20 = alloca i32, align 4
  %21 = alloca i8, align 1
  %22 = alloca i32, align 4
  %23 = alloca i8, align 1
  %24 = alloca i8, align 1
  %25 = alloca i8, align 1
  %26 = alloca i8, align 1
  %27 = alloca i8, align 1
  %28 = alloca i8, align 1
  %29 = alloca i8, align 1
  %30 = alloca i8, align 1
  store i32 %0, ptr %3, align 4, !tbaa !4
  br label %31

31:                                               ; preds = %1
  call void @llvm.lifetime.start.p0(i64 4, ptr %4) #7
  call void @llvm.lifetime.start.p0(i64 1, ptr %5) #7
  store i32 45, ptr %4, align 4, !tbaa !4
  %32 = load i32, ptr %3, align 4, !tbaa !4
  %33 = load i32, ptr %4, align 4, !tbaa !4
  %34 = call zeroext i8 @lean_uint32_dec_eq(i32 noundef %32, i32 noundef %33)
  store i8 %34, ptr %5, align 1, !tbaa !8
  %35 = load i8, ptr %5, align 1, !tbaa !8
  %36 = zext i8 %35 to i32
  %37 = icmp eq i32 %36, 0
  br i1 %37, label %38, label %113

38:                                               ; preds = %31
  call void @llvm.lifetime.start.p0(i64 4, ptr %6) #7
  call void @llvm.lifetime.start.p0(i64 1, ptr %7) #7
  store i32 95, ptr %6, align 4, !tbaa !4
  %39 = load i32, ptr %3, align 4, !tbaa !4
  %40 = load i32, ptr %6, align 4, !tbaa !4
  %41 = call zeroext i8 @lean_uint32_dec_eq(i32 noundef %39, i32 noundef %40)
  store i8 %41, ptr %7, align 1, !tbaa !8
  %42 = load i8, ptr %7, align 1, !tbaa !8
  %43 = zext i8 %42 to i32
  %44 = icmp eq i32 %43, 0
  br i1 %44, label %45, label %110

45:                                               ; preds = %38
  call void @llvm.lifetime.start.p0(i64 4, ptr %8) #7
  call void @llvm.lifetime.start.p0(i64 1, ptr %9) #7
  store i32 46, ptr %8, align 4, !tbaa !4
  %46 = load i32, ptr %3, align 4, !tbaa !4
  %47 = load i32, ptr %8, align 4, !tbaa !4
  %48 = call zeroext i8 @lean_uint32_dec_eq(i32 noundef %46, i32 noundef %47)
  store i8 %48, ptr %9, align 1, !tbaa !8
  %49 = load i8, ptr %9, align 1, !tbaa !8
  %50 = zext i8 %49 to i32
  %51 = icmp eq i32 %50, 0
  br i1 %51, label %52, label %107

52:                                               ; preds = %45
  call void @llvm.lifetime.start.p0(i64 4, ptr %10) #7
  call void @llvm.lifetime.start.p0(i64 1, ptr %11) #7
  store i32 33, ptr %10, align 4, !tbaa !4
  %53 = load i32, ptr %3, align 4, !tbaa !4
  %54 = load i32, ptr %10, align 4, !tbaa !4
  %55 = call zeroext i8 @lean_uint32_dec_eq(i32 noundef %53, i32 noundef %54)
  store i8 %55, ptr %11, align 1, !tbaa !8
  %56 = load i8, ptr %11, align 1, !tbaa !8
  %57 = zext i8 %56 to i32
  %58 = icmp eq i32 %57, 0
  br i1 %58, label %59, label %104

59:                                               ; preds = %52
  call void @llvm.lifetime.start.p0(i64 4, ptr %12) #7
  call void @llvm.lifetime.start.p0(i64 1, ptr %13) #7
  store i32 126, ptr %12, align 4, !tbaa !4
  %60 = load i32, ptr %3, align 4, !tbaa !4
  %61 = load i32, ptr %12, align 4, !tbaa !4
  %62 = call zeroext i8 @lean_uint32_dec_eq(i32 noundef %60, i32 noundef %61)
  store i8 %62, ptr %13, align 1, !tbaa !8
  %63 = load i8, ptr %13, align 1, !tbaa !8
  %64 = zext i8 %63 to i32
  %65 = icmp eq i32 %64, 0
  br i1 %65, label %66, label %101

66:                                               ; preds = %59
  call void @llvm.lifetime.start.p0(i64 4, ptr %14) #7
  call void @llvm.lifetime.start.p0(i64 1, ptr %15) #7
  store i32 42, ptr %14, align 4, !tbaa !4
  %67 = load i32, ptr %3, align 4, !tbaa !4
  %68 = load i32, ptr %14, align 4, !tbaa !4
  %69 = call zeroext i8 @lean_uint32_dec_eq(i32 noundef %67, i32 noundef %68)
  store i8 %69, ptr %15, align 1, !tbaa !8
  %70 = load i8, ptr %15, align 1, !tbaa !8
  %71 = zext i8 %70 to i32
  %72 = icmp eq i32 %71, 0
  br i1 %72, label %73, label %98

73:                                               ; preds = %66
  call void @llvm.lifetime.start.p0(i64 4, ptr %16) #7
  call void @llvm.lifetime.start.p0(i64 1, ptr %17) #7
  store i32 39, ptr %16, align 4, !tbaa !4
  %74 = load i32, ptr %3, align 4, !tbaa !4
  %75 = load i32, ptr %16, align 4, !tbaa !4
  %76 = call zeroext i8 @lean_uint32_dec_eq(i32 noundef %74, i32 noundef %75)
  store i8 %76, ptr %17, align 1, !tbaa !8
  %77 = load i8, ptr %17, align 1, !tbaa !8
  %78 = zext i8 %77 to i32
  %79 = icmp eq i32 %78, 0
  br i1 %79, label %80, label %95

80:                                               ; preds = %73
  call void @llvm.lifetime.start.p0(i64 4, ptr %18) #7
  call void @llvm.lifetime.start.p0(i64 1, ptr %19) #7
  store i32 40, ptr %18, align 4, !tbaa !4
  %81 = load i32, ptr %3, align 4, !tbaa !4
  %82 = load i32, ptr %18, align 4, !tbaa !4
  %83 = call zeroext i8 @lean_uint32_dec_eq(i32 noundef %81, i32 noundef %82)
  store i8 %83, ptr %19, align 1, !tbaa !8
  %84 = load i8, ptr %19, align 1, !tbaa !8
  %85 = zext i8 %84 to i32
  %86 = icmp eq i32 %85, 0
  br i1 %86, label %87, label %92

87:                                               ; preds = %80
  call void @llvm.lifetime.start.p0(i64 4, ptr %20) #7
  call void @llvm.lifetime.start.p0(i64 1, ptr %21) #7
  store i32 41, ptr %20, align 4, !tbaa !4
  %88 = load i32, ptr %3, align 4, !tbaa !4
  %89 = load i32, ptr %20, align 4, !tbaa !4
  %90 = call zeroext i8 @lean_uint32_dec_eq(i32 noundef %88, i32 noundef %89)
  store i8 %90, ptr %21, align 1, !tbaa !8
  %91 = load i8, ptr %21, align 1, !tbaa !8
  store i8 %91, ptr %2, align 1
  store i32 1, ptr %22, align 4
  call void @llvm.lifetime.end.p0(i64 1, ptr %21) #7
  call void @llvm.lifetime.end.p0(i64 4, ptr %20) #7
  br label %94

92:                                               ; preds = %80
  call void @llvm.lifetime.start.p0(i64 1, ptr %23) #7
  store i8 1, ptr %23, align 1, !tbaa !8
  %93 = load i8, ptr %23, align 1, !tbaa !8
  store i8 %93, ptr %2, align 1
  store i32 1, ptr %22, align 4
  call void @llvm.lifetime.end.p0(i64 1, ptr %23) #7
  br label %94

94:                                               ; preds = %92, %87
  call void @llvm.lifetime.end.p0(i64 1, ptr %19) #7
  call void @llvm.lifetime.end.p0(i64 4, ptr %18) #7
  br label %97

95:                                               ; preds = %73
  call void @llvm.lifetime.start.p0(i64 1, ptr %24) #7
  store i8 1, ptr %24, align 1, !tbaa !8
  %96 = load i8, ptr %24, align 1, !tbaa !8
  store i8 %96, ptr %2, align 1
  store i32 1, ptr %22, align 4
  call void @llvm.lifetime.end.p0(i64 1, ptr %24) #7
  br label %97

97:                                               ; preds = %95, %94
  call void @llvm.lifetime.end.p0(i64 1, ptr %17) #7
  call void @llvm.lifetime.end.p0(i64 4, ptr %16) #7
  br label %100

98:                                               ; preds = %66
  call void @llvm.lifetime.start.p0(i64 1, ptr %25) #7
  store i8 1, ptr %25, align 1, !tbaa !8
  %99 = load i8, ptr %25, align 1, !tbaa !8
  store i8 %99, ptr %2, align 1
  store i32 1, ptr %22, align 4
  call void @llvm.lifetime.end.p0(i64 1, ptr %25) #7
  br label %100

100:                                              ; preds = %98, %97
  call void @llvm.lifetime.end.p0(i64 1, ptr %15) #7
  call void @llvm.lifetime.end.p0(i64 4, ptr %14) #7
  br label %103

101:                                              ; preds = %59
  call void @llvm.lifetime.start.p0(i64 1, ptr %26) #7
  store i8 1, ptr %26, align 1, !tbaa !8
  %102 = load i8, ptr %26, align 1, !tbaa !8
  store i8 %102, ptr %2, align 1
  store i32 1, ptr %22, align 4
  call void @llvm.lifetime.end.p0(i64 1, ptr %26) #7
  br label %103

103:                                              ; preds = %101, %100
  call void @llvm.lifetime.end.p0(i64 1, ptr %13) #7
  call void @llvm.lifetime.end.p0(i64 4, ptr %12) #7
  br label %106

104:                                              ; preds = %52
  call void @llvm.lifetime.start.p0(i64 1, ptr %27) #7
  store i8 1, ptr %27, align 1, !tbaa !8
  %105 = load i8, ptr %27, align 1, !tbaa !8
  store i8 %105, ptr %2, align 1
  store i32 1, ptr %22, align 4
  call void @llvm.lifetime.end.p0(i64 1, ptr %27) #7
  br label %106

106:                                              ; preds = %104, %103
  call void @llvm.lifetime.end.p0(i64 1, ptr %11) #7
  call void @llvm.lifetime.end.p0(i64 4, ptr %10) #7
  br label %109

107:                                              ; preds = %45
  call void @llvm.lifetime.start.p0(i64 1, ptr %28) #7
  store i8 1, ptr %28, align 1, !tbaa !8
  %108 = load i8, ptr %28, align 1, !tbaa !8
  store i8 %108, ptr %2, align 1
  store i32 1, ptr %22, align 4
  call void @llvm.lifetime.end.p0(i64 1, ptr %28) #7
  br label %109

109:                                              ; preds = %107, %106
  call void @llvm.lifetime.end.p0(i64 1, ptr %9) #7
  call void @llvm.lifetime.end.p0(i64 4, ptr %8) #7
  br label %112

110:                                              ; preds = %38
  call void @llvm.lifetime.start.p0(i64 1, ptr %29) #7
  store i8 1, ptr %29, align 1, !tbaa !8
  %111 = load i8, ptr %29, align 1, !tbaa !8
  store i8 %111, ptr %2, align 1
  store i32 1, ptr %22, align 4
  call void @llvm.lifetime.end.p0(i64 1, ptr %29) #7
  br label %112

112:                                              ; preds = %110, %109
  call void @llvm.lifetime.end.p0(i64 1, ptr %7) #7
  call void @llvm.lifetime.end.p0(i64 4, ptr %6) #7
  br label %115

113:                                              ; preds = %31
  call void @llvm.lifetime.start.p0(i64 1, ptr %30) #7
  store i8 1, ptr %30, align 1, !tbaa !8
  %114 = load i8, ptr %30, align 1, !tbaa !8
  store i8 %114, ptr %2, align 1
  store i32 1, ptr %22, align 4
  call void @llvm.lifetime.end.p0(i64 1, ptr %30) #7
  br label %115

115:                                              ; preds = %113, %112
  call void @llvm.lifetime.end.p0(i64 1, ptr %5) #7
  call void @llvm.lifetime.end.p0(i64 4, ptr %4) #7
  %116 = load i8, ptr %2, align 1
  ret i8 %116
}

; Function Attrs: alwaysinline nounwind uwtable
define internal void @lean_dec(ptr noundef %0) #1 {
  %2 = alloca ptr, align 8
  store ptr %0, ptr %2, align 8, !tbaa !11
  %3 = load ptr, ptr %2, align 8, !tbaa !11
  %4 = call zeroext i1 @lean_is_scalar(ptr noundef %3)
  br i1 %4, label %7, label %5

5:                                                ; preds = %1
  %6 = load ptr, ptr %2, align 8, !tbaa !11
  call void @lean_dec_ref(ptr noundef %6)
  br label %7

7:                                                ; preds = %5, %1
  ret void
}

; Function Attrs: inlinehint nounwind uwtable
define internal i32 @lean_unbox_uint32(ptr noundef %0) #0 {
  %2 = alloca ptr, align 8
  store ptr %0, ptr %2, align 8, !tbaa !11
  %3 = load ptr, ptr %2, align 8, !tbaa !11
  %4 = call i64 @lean_unbox(ptr noundef %3)
  %5 = trunc i64 %4 to i32
  ret i32 %5
}

; Function Attrs: nounwind uwtable
define ptr @l_Lake_isUriUnreservedMark___boxed(ptr noundef %0) #2 {
  %2 = alloca ptr, align 8
  %3 = alloca i32, align 4
  %4 = alloca i8, align 1
  %5 = alloca ptr, align 8
  store ptr %0, ptr %2, align 8, !tbaa !11
  br label %6

6:                                                ; preds = %1
  call void @llvm.lifetime.start.p0(i64 4, ptr %3) #7
  call void @llvm.lifetime.start.p0(i64 1, ptr %4) #7
  call void @llvm.lifetime.start.p0(i64 8, ptr %5) #7
  %7 = load ptr, ptr %2, align 8, !tbaa !11
  %8 = call i32 @lean_unbox_uint32(ptr noundef %7)
  store i32 %8, ptr %3, align 4, !tbaa !4
  %9 = load ptr, ptr %2, align 8, !tbaa !11
  call void @lean_dec(ptr noundef %9)
  %10 = load i32, ptr %3, align 4, !tbaa !4
  %11 = call zeroext i8 @l_Lake_isUriUnreservedMark(i32 noundef %10)
  store i8 %11, ptr %4, align 1, !tbaa !8
  %12 = load i8, ptr %4, align 1, !tbaa !8
  %13 = zext i8 %12 to i64
  %14 = call ptr @lean_box(i64 noundef %13)
  store ptr %14, ptr %5, align 8, !tbaa !11
  %15 = load ptr, ptr %5, align 8, !tbaa !11
  call void @llvm.lifetime.end.p0(i64 8, ptr %5) #7
  call void @llvm.lifetime.end.p0(i64 1, ptr %4) #7
  call void @llvm.lifetime.end.p0(i64 4, ptr %3) #7
  ret ptr %15
}