; Function Attrs: nounwind uwtable
define nonnull ptr @l_Lake_isUriUnreservedMark___boxed(ptr noundef %0) local_unnamed_addr #1 {
  %2 = ptrtoint ptr %0 to i64
  %3 = lshr i64 %2, 1
  %4 = trunc i64 %3 to i32
  %5 = and i64 %2, 1
  %.not = icmp eq i64 %5, 0
  br i1 %.not, label %6, label %lean_dec.exit

6:                                                ; preds = %1
  %7 = load i32, ptr %0, align 4, !tbaa !4
  %8 = icmp sgt i32 %7, 1
  br i1 %8, label %9, label %11, !prof !9

9:                                                ; preds = %6
  %10 = add nsw i32 %7, -1
  store i32 %10, ptr %0, align 4, !tbaa !4
  br label %lean_dec.exit

11:                                               ; preds = %6
  %.not.i = icmp eq i32 %7, 0
  br i1 %.not.i, label %lean_dec.exit, label %12

12:                                               ; preds = %11
  tail call void @lean_dec_ref_cold(ptr noundef nonnull %0) #7
  br label %lean_dec.exit

lean_dec.exit:                                    ; preds = %12, %11, %9, %1
  switch i32 %4, label %13 [
    i32 45, label %l_Lake_isUriUnreservedMark.exit
    i32 95, label %l_Lake_isUriUnreservedMark.exit
    i32 46, label %l_Lake_isUriUnreservedMark.exit
    i32 33, label %l_Lake_isUriUnreservedMark.exit
    i32 126, label %l_Lake_isUriUnreservedMark.exit
    i32 42, label %l_Lake_isUriUnreservedMark.exit
    i32 39, label %l_Lake_isUriUnreservedMark.exit
    i32 40, label %l_Lake_isUriUnreservedMark.exit
  ]

13:                                               ; preds = %lean_dec.exit
  %14 = icmp eq i32 %4, 41
  %15 = select i1 %14, i64 3, i64 1
  br label %l_Lake_isUriUnreservedMark.exit

l_Lake_isUriUnreservedMark.exit:                  ; preds = %lean_dec.exit, %lean_dec.exit, %lean_dec.exit, %lean_dec.exit, %lean_dec.exit, %lean_dec.exit, %lean_dec.exit, %lean_dec.exit, %13
  %.7.i = phi i64 [ %15, %13 ], [ 3, %lean_dec.exit ], [ 3, %lean_dec.exit ], [ 3, %lean_dec.exit ], [ 3, %lean_dec.exit ], [ 3, %lean_dec.exit ], [ 3, %lean_dec.exit ], [ 3, %lean_dec.exit ], [ 3, %lean_dec.exit ]
  %16 = inttoptr i64 %.7.i to ptr
  ret ptr %16
}